target datalayout = "e-m:e-p270:32:32-p271:32:32-p272:64:64-i64:64-i128:128-f80:128-n8:16:32:64-S128"
target triple = "x86_64-pc-linux-gnu"

; Function Attrs: nounwind uwtable
define internal i32 @clamp(i32 noundef %0, i32 noundef %1, i32 noundef %2) #0 {
  %4 = alloca i32, align 4
  %5 = alloca i32, align 4
  %6 = alloca i32, align 4
  store i32 %0, ptr %4, align 4
  store i32 %1, ptr %5, align 4
  store i32 %2, ptr %6, align 4
  %7 = load i32, ptr %4, align 4
  %8 = load i32, ptr %5, align 4
  %9 = icmp slt i32 %7, %8
  br i1 %9, label %10, label %12

10:                                               ; preds = %3
  %11 = load i32, ptr %5, align 4
  br label %22

12:                                               ; preds = %3
  %13 = load i32, ptr %4, align 4
  %14 = load i32, ptr %6, align 4
  %15 = icmp sgt i32 %13, %14
  br i1 %15, label %16, label %18

16:                                               ; preds = %12
  %17 = load i32, ptr %6, align 4
  br label %20

18:                                               ; preds = %12
  %19 = load i32, ptr %4, align 4
  br label %20

20:                                               ; preds = %18, %16
  %21 = phi i32 [ %17, %16 ], [ %19, %18 ]
  br label %22

22:                                               ; preds = %20, %10
  %23 = phi i32 [ %11, %10 ], [ %21, %20 ]
  ret i32 %23
}

; Function Attrs: nounwind uwtable
define internal zeroext i16 @clip_pixel_highbd(i32 noundef %0, i32 noundef %1) #0 {
  %3 = alloca i16, align 2
  %4 = alloca i32, align 4
  %5 = alloca i32, align 4
  store i32 %0, ptr %4, align 4
  store i32 %1, ptr %5, align 4
  %6 = load i32, ptr %5, align 4
  switch i32 %6, label %8 [
    i32 8, label %7
    i32 10, label %12
    i32 12, label %16
  ]

7:                                                ; preds = %2
  br label %8

8:                                                ; preds = %7, %2
  %9 = load i32, ptr %4, align 4
  %10 = call i32 @clamp(i32 noundef %9, i32 noundef 0, i32 noundef 255)
  %11 = trunc i32 %10 to i16
  store i16 %11, ptr %3, align 2
  br label %20

12:                                               ; preds = %2
  %13 = load i32, ptr %4, align 4
  %14 = call i32 @clamp(i32 noundef %13, i32 noundef 0, i32 noundef 1023)
  %15 = trunc i32 %14 to i16
  store i16 %15, ptr %3, align 2
  br label %20

16:                                               ; preds = %2
  %17 = load i32, ptr %4, align 4
  %18 = call i32 @clamp(i32 noundef %17, i32 noundef 0, i32 noundef 4095)
  %19 = trunc i32 %18 to i16
  store i16 %19, ptr %3, align 2
  br label %20

20:                                               ; preds = %16, %12, %8
  %21 = load i16, ptr %3, align 2
  ret i16 %21
}

; Function Attrs: nounwind uwtable
define internal i32 @highbd_vert_scalar_product(ptr noundef %0, i64 noundef %1, ptr noundef %2) #0 {
  %4 = alloca ptr, align 8
  %5 = alloca i64, align 8
  %6 = alloca ptr, align 8
  %7 = alloca i32, align 4
  %8 = alloca i32, align 4
  store ptr %0, ptr %4, align 8
  store i64 %1, ptr %5, align 8
  store ptr %2, ptr %6, align 8
  store i32 0, ptr %7, align 4
  store i32 0, ptr %8, align 4
  br label %9

9:                                                ; preds = %30, %3
  %10 = load i32, ptr %8, align 4
  %11 = icmp slt i32 %10, 8
  br i1 %11, label %12, label %33

12:                                               ; preds = %9
  %13 = load ptr, ptr %4, align 8
  %14 = load i32, ptr %8, align 4
  %15 = sext i32 %14 to i64
  %16 = load i64, ptr %5, align 8
  %17 = mul nsw i64 %15, %16
  %18 = getelementptr inbounds i16, ptr %13, i64 %17
  %19 = load i16, ptr %18, align 2
  %20 = zext i16 %19 to i32
  %21 = load ptr, ptr %6, align 8
  %22 = load i32, ptr %8, align 4
  %23 = sext i32 %22 to i64
  %24 = getelementptr inbounds i16, ptr %21, i64 %23
  %25 = load i16, ptr %24, align 2
  %26 = sext i16 %25 to i32
  %27 = mul nsw i32 %20, %26
  %28 = load i32, ptr %7, align 4
  %29 = add nsw i32 %28, %27
  store i32 %29, ptr %7, align 4
  br label %30

30:                                               ; preds = %12
  %31 = load i32, ptr %8, align 4
  %32 = add nsw i32 %31, 1
  store i32 %32, ptr %8, align 4
  br label %9, !llvm.loop !18

33:                                               ; preds = %9
  %34 = load i32, ptr %7, align 4
  ret i32 %34
}

; Function Attrs: nounwind uwtable
define internal void @highbd_convolve_vert(ptr noundef %0, i64 noundef %1, ptr noundef %2, i64 noundef %3, ptr noundef %4, i32 noundef %5, i32 noundef %6, i32 noundef %7, i32 noundef %8, i32 noundef %9) #0 {
  %11 = alloca ptr, align 8
  %12 = alloca i64, align 8
  %13 = alloca ptr, align 8
  %14 = alloca i64, align 8
  %15 = alloca ptr, align 8
  %16 = alloca i32, align 4
  %17 = alloca i32, align 4
  %18 = alloca i32, align 4
  %19 = alloca i32, align 4
  %20 = alloca i32, align 4
  %21 = alloca ptr, align 8
  %22 = alloca ptr, align 8
  %23 = alloca i32, align 4
  %24 = alloca i32, align 4
  %25 = alloca i32, align 4
  %26 = alloca ptr, align 8
  %27 = alloca ptr, align 8
  %28 = alloca i32, align 4
  store ptr %0, ptr %11, align 8
  store i64 %1, ptr %12, align 8
  store ptr %2, ptr %13, align 8
  store i64 %3, ptr %14, align 8
  store ptr %4, ptr %15, align 8
  store i32 %5, ptr %16, align 4
  store i32 %6, ptr %17, align 4
  store i32 %7, ptr %18, align 4
  store i32 %8, ptr %19, align 4
  store i32 %9, ptr %20, align 4
  %29 = load ptr, ptr %11, align 8
  %30 = ptrtoint ptr %29 to i64
  %31 = shl i64 %30, 1
  %32 = inttoptr i64 %31 to ptr
  store ptr %32, ptr %21, align 8
  %33 = load ptr, ptr %13, align 8
  %34 = ptrtoint ptr %33 to i64
  %35 = shl i64 %34, 1
  %36 = inttoptr i64 %35 to ptr
  store ptr %36, ptr %22, align 8
  %37 = load i64, ptr %12, align 8
  %38 = mul nsw i64 %37, 3
  %39 = load ptr, ptr %21, align 8
  %40 = sub i64 0, %38
  %41 = getelementptr inbounds i16, ptr %39, i64 %40
  store ptr %41, ptr %21, align 8
  store i32 0, ptr %23, align 4
  br label %42

42:                                               ; preds = %92, %10
  %43 = load i32, ptr %23, align 4
  %44 = load i32, ptr %18, align 4
  %45 = icmp slt i32 %43, %44
  br i1 %45, label %46, label %95

46:                                               ; preds = %42
  %47 = load i32, ptr %16, align 4
  store i32 %47, ptr %24, align 4
  store i32 0, ptr %25, align 4
  br label %48

48:                                               ; preds = %84, %46
  %49 = load i32, ptr %25, align 4
  %50 = load i32, ptr %19, align 4
  %51 = icmp slt i32 %49, %50
  br i1 %51, label %52, label %87

52:                                               ; preds = %48
  %53 = load ptr, ptr %21, align 8
  %54 = load i32, ptr %24, align 4
  %55 = ashr i32 %54, 4
  %56 = sext i32 %55 to i64
  %57 = load i64, ptr %12, align 8
  %58 = mul nsw i64 %56, %57
  %59 = getelementptr inbounds i16, ptr %53, i64 %58
  store ptr %59, ptr %26, align 8
  %60 = load ptr, ptr %15, align 8
  %61 = load i32, ptr %24, align 4
  %62 = and i32 %61, 15
  %63 = sext i32 %62 to i64
  %64 = getelementptr inbounds [8 x i16], ptr %60, i64 %63
  %65 = getelementptr inbounds [8 x i16], ptr %64, i64 0, i64 0
  store ptr %65, ptr %27, align 8
  %66 = load ptr, ptr %26, align 8
  %67 = load i64, ptr %12, align 8
  %68 = load ptr, ptr %27, align 8
  %69 = call i32 @highbd_vert_scalar_product(ptr noundef %66, i64 noundef %67, ptr noundef %68)
  store i32 %69, ptr %28, align 4
  %70 = load i32, ptr %28, align 4
  %71 = add nsw i32 %70, 64
  %72 = ashr i32 %71, 7
  %73 = load i32, ptr %20, align 4
  %74 = call zeroext i16 @clip_pixel_highbd(i32 noundef %72, i32 noundef %73)
  %75 = load ptr, ptr %22, align 8
  %76 = load i32, ptr %25, align 4
  %77 = sext i32 %76 to i64
  %78 = load i64, ptr %14, align 8
  %79 = mul nsw i64 %77, %78
  %80 = getelementptr inbounds i16, ptr %75, i64 %79
  store i16 %74, ptr %80, align 2
  %81 = load i32, ptr %17, align 4
  %82 = load i32, ptr %24, align 4
  %83 = add nsw i32 %82, %81
  store i32 %83, ptr %24, align 4
  br label %84

84:                                               ; preds = %52
  %85 = load i32, ptr %25, align 4
  %86 = add nsw i32 %85, 1
  store i32 %86, ptr %25, align 4
  br label %48, !llvm.loop !12

87:                                               ; preds = %48
  %88 = load ptr, ptr %21, align 8
  %89 = getelementptr inbounds i16, ptr %88, i32 1
  store ptr %89, ptr %21, align 8
  %90 = load ptr, ptr %22, align 8
  %91 = getelementptr inbounds i16, ptr %90, i32 1
  store ptr %91, ptr %22, align 8
  br label %92

92:                                               ; preds = %87
  %93 = load i32, ptr %23, align 4
  %94 = add nsw i32 %93, 1
  store i32 %94, ptr %23, align 4
  br label %42, !llvm.loop !13

95:                                               ; preds = %42
  ret void
}

; Function Attrs: nounwind uwtable
define internal i32 @get_filter_offset(ptr noundef %0, ptr noundef %1) #0 {
  %3 = alloca ptr, align 8
  %4 = alloca ptr, align 8
  store ptr %0, ptr %3, align 8
  store ptr %1, ptr %4, align 8
  %5 = load ptr, ptr %3, align 8
  %6 = ptrtoint ptr %5 to i64
  %7 = inttoptr i64 %6 to ptr
  %8 = load ptr, ptr %4, align 8
  %9 = ptrtoint ptr %7 to i64
  %10 = ptrtoint ptr %8 to i64
  %11 = sub i64 %9, %10
  %12 = sdiv exact i64 %11, 16
  %13 = trunc i64 %12 to i32
  ret i32 %13
}

; Function Attrs: nounwind uwtable
define internal ptr @get_filter_base(ptr noundef %0) #0 {
  %2 = alloca ptr, align 8
  store ptr %0, ptr %2, align 8
  %3 = load ptr, ptr %2, align 8
  %4 = ptrtoint ptr %3 to i64
  %5 = and i64 %4, -256
  %6 = inttoptr i64 %5 to ptr
  ret ptr %6
}

; Function Attrs: nounwind uwtable
define hidden void @aom_highbd_convolve8_vert_c(ptr noundef %0, i64 noundef %1, ptr noundef %2, i64 noundef %3, ptr noundef %4, i32 noundef %5, ptr noundef %6, i32 noundef %7, i32 noundef %8, i32 noundef %9, i32 noundef %10) #0 {
  %12 = alloca ptr, align 8
  %13 = alloca i64, align 8
  %14 = alloca ptr, align 8
  %15 = alloca i64, align 8
  %16 = alloca ptr, align 8
  %17 = alloca i32, align 4
  %18 = alloca ptr, align 8
  %19 = alloca i32, align 4
  %20 = alloca i32, align 4
  %21 = alloca i32, align 4
  %22 = alloca i32, align 4
  %23 = alloca ptr, align 8
  %24 = alloca i32, align 4
  store ptr %0, ptr %12, align 8
  store i64 %1, ptr %13, align 8
  store ptr %2, ptr %14, align 8
  store i64 %3, ptr %15, align 8
  store ptr %4, ptr %16, align 8
  store i32 %5, ptr %17, align 4
  store ptr %6, ptr %18, align 8
  store i32 %7, ptr %19, align 4
  store i32 %8, ptr %20, align 4
  store i32 %9, ptr %21, align 4
  store i32 %10, ptr %22, align 4
  %25 = load ptr, ptr %18, align 8
  %26 = call ptr @get_filter_base(ptr noundef %25)
  store ptr %26, ptr %23, align 8
  %27 = load ptr, ptr %18, align 8
  %28 = load ptr, ptr %23, align 8
  %29 = call i32 @get_filter_offset(ptr noundef %27, ptr noundef %28)
  store i32 %29, ptr %24, align 4
  %30 = load ptr, ptr %12, align 8
  %31 = load i64, ptr %13, align 8
  %32 = load ptr, ptr %14, align 8
  %33 = load i64, ptr %15, align 8
  %34 = load ptr, ptr %23, align 8
  %35 = load i32, ptr %24, align 4
  %36 = load i32, ptr %19, align 4
  %37 = load i32, ptr %20, align 4
  %38 = load i32, ptr %21, align 4
  %39 = load i32, ptr %22, align 4
  call void @highbd_convolve_vert(ptr noundef %30, i64 noundef %31, ptr noundef %32, i64 noundef %33, ptr noundef %34, i32 noundef %35, i32 noundef %36, i32 noundef %37, i32 noundef %38, i32 noundef %39)
  ret void
}