; Function Attrs: nofree norecurse nosync nounwind memory(readwrite, inaccessiblemem: none) uwtable
define hidden void @aom_highbd_convolve8_vert_c(ptr noundef %0, i64 noundef %1, ptr noundef %2, i64 noundef %3, ptr nocapture noundef readnone %4, i32 noundef %5, ptr noundef %6, i32 noundef %7, i32 noundef %8, i32 noundef %9, i32 noundef %10) local_unnamed_addr #3 {
  %12 = ptrtoint ptr %6 to i64
  %13 = and i64 %12, -256
  %14 = inttoptr i64 %13 to ptr
  %15 = trunc i64 %12 to i32
  %16 = lshr i32 %15, 4
  %17 = and i32 %16, 15
  %18 = icmp sgt i32 %8, 0
  %19 = icmp sgt i32 %9, 0
  %or.cond.i = and i1 %18, %19
  br i1 %or.cond.i, label %.preheader.us.preheader.i, label %highbd_convolve_vert.exit

.preheader.us.preheader.i:                        ; preds = %11
  %20 = ptrtoint ptr %2 to i64
  %21 = shl i64 %20, 1
  %22 = inttoptr i64 %21 to ptr
  %23 = ptrtoint ptr %0 to i64
  %24 = shl i64 %23, 1
  %25 = inttoptr i64 %24 to ptr
  %.idx.i = mul i64 %1, -6
  %26 = getelementptr inbounds i8, ptr %25, i64 %.idx.i
  %wide.trip.count.i = zext nneg i32 %9 to i64
  br label %.preheader.us.i

.preheader.us.i:                                  ; preds = %._crit_edge.us.i, %.preheader.us.preheader.i
  %.035.us.i = phi ptr [ %58, %._crit_edge.us.i ], [ %26, %.preheader.us.preheader.i ]
  %.02734.us.i = phi ptr [ %59, %._crit_edge.us.i ], [ %22, %.preheader.us.preheader.i ]
  %.02833.us.i = phi i32 [ %60, %._crit_edge.us.i ], [ 0, %.preheader.us.preheader.i ]
  br label %27

27:                                               ; preds = %clip_pixel_highbd.exit.us.i, %.preheader.us.i
  %indvars.iv.i = phi i64 [ 0, %.preheader.us.i ], [ %indvars.iv.next.i, %clip_pixel_highbd.exit.us.i ]
  %.03031.us.i = phi i32 [ %17, %.preheader.us.i ], [ %57, %clip_pixel_highbd.exit.us.i ]
  %28 = ashr i32 %.03031.us.i, 4
  %29 = sext i32 %28 to i64
  %30 = mul nsw i64 %1, %29
  %31 = getelementptr inbounds i16, ptr %.035.us.i, i64 %30
  %32 = and i32 %.03031.us.i, 15
  %33 = zext nneg i32 %32 to i64
  %34 = getelementptr inbounds [8 x i16], ptr %14, i64 %33
  br label %35

35:                                               ; preds = %35, %27
  %indvars.iv.i.us.i = phi i64 [ 0, %27 ], [ %indvars.iv.next.i.us.i, %35 ]
  %.089.i.us.i = phi i32 [ 0, %27 ], [ %44, %35 ]
  %36 = mul nsw i64 %indvars.iv.i.us.i, %1
  %37 = getelementptr inbounds i16, ptr %31, i64 %36
  %38 = load i16, ptr %37, align 2
  %39 = zext i16 %38 to i32
  %40 = getelementptr inbounds i16, ptr %34, i64 %indvars.iv.i.us.i
  %41 = load i16, ptr %40, align 2
  %42 = sext i16 %41 to i32
  %43 = mul nsw i32 %42, %39
  %44 = add nsw i32 %43, %.089.i.us.i
  %indvars.iv.next.i.us.i = add nuw nsw i64 %indvars.iv.i.us.i, 1
  %exitcond.not.i.us.i = icmp eq i64 %indvars.iv.next.i.us.i, 8
  br i1 %exitcond.not.i.us.i, label %highbd_vert_scalar_product.exit.us.i, label %35, !llvm.loop !15

highbd_vert_scalar_product.exit.us.i:             ; preds = %35
  %45 = add nsw i32 %44, 64
  %46 = ashr i32 %45, 7
  switch i32 %10, label %51 [
    i32 12, label %49
    i32 10, label %47
  ]

47:                                               ; preds = %highbd_vert_scalar_product.exit.us.i
  %48 = tail call i32 @llvm.umin.i32(i32 %46, i32 1023)
  br label %clip_pixel_highbd.exit.us.i

49:                                               ; preds = %highbd_vert_scalar_product.exit.us.i
  %50 = tail call i32 @llvm.umin.i32(i32 %46, i32 4095)
  br label %clip_pixel_highbd.exit.us.i

51:                                               ; preds = %highbd_vert_scalar_product.exit.us.i
  %52 = tail call i32 @llvm.umin.i32(i32 %46, i32 255)
  br label %clip_pixel_highbd.exit.us.i

clip_pixel_highbd.exit.us.i:                      ; preds = %51, %49, %47
  %.sink.i.us.i = phi i32 [ %50, %49 ], [ %48, %47 ], [ %52, %51 ]
  %53 = icmp slt i32 %46, 0
  %54 = trunc nuw nsw i32 %.sink.i.us.i to i16
  %.0.i.us.i = select i1 %53, i16 0, i16 %54
  %55 = mul nsw i64 %indvars.iv.i, %3
  %56 = getelementptr inbounds i16, ptr %.02734.us.i, i64 %55
  store i16 %.0.i.us.i, ptr %56, align 2
  %57 = add nsw i32 %.03031.us.i, %7
  %indvars.iv.next.i = add nuw nsw i64 %indvars.iv.i, 1
  %exitcond.not.i = icmp eq i64 %indvars.iv.next.i, %wide.trip.count.i
  br i1 %exitcond.not.i, label %._crit_edge.us.i, label %27, !llvm.loop !16

._crit_edge.us.i:                                 ; preds = %clip_pixel_highbd.exit.us.i
  %58 = getelementptr inbounds i8, ptr %.035.us.i, i64 2
  %59 = getelementptr inbounds i8, ptr %.02734.us.i, i64 2
  %60 = add nuw nsw i32 %.02833.us.i, 1
  %exitcond39.not.i = icmp eq i32 %60, %8
  br i1 %exitcond39.not.i, label %highbd_convolve_vert.exit, label %.preheader.us.i, !llvm.loop !17

highbd_convolve_vert.exit:                        ; preds = %._crit_edge.us.i, %11
  ret void
}